; Function Attrs: mustprogress uwtable
define void @_ZN7openvdb5v11_02io5Queue14clearNotifiersEv(ptr nocapture noundef nonnull readonly align 8 dereferenceable(8) %this) local_unnamed_addr #5 align 2 personality ptr @__gxx_personality_v0 {
entry:
  %0 = load ptr, ptr %this, align 8
  %mNotifierMutex = getelementptr inbounds i8, ptr %0, i64 648
  %call1.i.i.i = tail call noundef i32 @pthread_mutex_lock(ptr noundef nonnull %mNotifierMutex) #20
  %tobool.not.i.i = icmp eq i32 %call1.i.i.i, 0
  br i1 %tobool.not.i.i, label %_ZNSt10lock_guardISt5mutexEC2ERS0_.exit, label %if.then.i.i

if.then.i.i:                                      ; preds = %entry
  tail call void @_ZSt20__throw_system_errori(i32 noundef %call1.i.i.i) #29
  unreachable

_ZNSt10lock_guardISt5mutexEC2ERS0_.exit:          ; preds = %entry
  %1 = load ptr, ptr %this, align 8
  %mNotifiers = getelementptr inbounds i8, ptr %1, i64 592
  %_M_parent.i.i.i.i = getelementptr inbounds i8, ptr %1, i64 608
  %2 = load ptr, ptr %_M_parent.i.i.i.i, align 8
  invoke void @_ZNSt8_Rb_treeIjSt4pairIKjSt8functionIFvjN7openvdb5v11_02io5Queue6StatusEEEESt10_Select1stISA_ESt4lessIjESaISA_EE8_M_eraseEPSt13_Rb_tree_nodeISA_E(ptr noundef nonnull align 8 dereferenceable(48) %mNotifiers, ptr noundef %2)
          to label %_ZNSt3mapIjSt8functionIFvjN7openvdb5v11_02io5Queue6StatusEEESt4lessIjESaISt4pairIKjS7_EEE5clearEv.exit unwind label %terminate.lpad.i.i

terminate.lpad.i.i:                               ; preds = %_ZNSt10lock_guardISt5mutexEC2ERS0_.exit
  %3 = landingpad { ptr, i32 }
          catch ptr null
  %4 = extractvalue { ptr, i32 } %3, 0
  tail call void @__clang_call_terminate(ptr %4) #28
  unreachable

_ZNSt3mapIjSt8functionIFvjN7openvdb5v11_02io5Queue6StatusEEESt4lessIjESaISt4pairIKjS7_EEE5clearEv.exit: ; preds = %_ZNSt10lock_guardISt5mutexEC2ERS0_.exit
  %add.ptr.i.i = getelementptr inbounds i8, ptr %1, i64 600
  store ptr null, ptr %_M_parent.i.i.i.i, align 8
  %_M_left.i.i.i = getelementptr inbounds i8, ptr %1, i64 616
  store ptr %add.ptr.i.i, ptr %_M_left.i.i.i, align 8
  %_M_right.i.i.i = getelementptr inbounds i8, ptr %1, i64 624
  store ptr %add.ptr.i.i, ptr %_M_right.i.i.i, align 8
  %_M_node_count.i.i.i = getelementptr inbounds i8, ptr %1, i64 632
  store i64 0, ptr %_M_node_count.i.i.i, align 8
  %call1.i.i.i1 = tail call noundef i32 @pthread_mutex_unlock(ptr noundef nonnull %mNotifierMutex) #20
  ret void
}